target datalayout = "e-m:e-p270:32:32-p271:32:32-p272:64:64-i64:64-i128:128-f80:128-n8:16:32:64-S128"
target triple = "x86_64-unknown-linux-gnu"

%"class.Imf_3_2::StdIFStream" = type <{ %"class.Imf_3_2::IStream", ptr, i8, [7 x i8] }>
%"class.Imf_3_2::IStream" = type { ptr, %"class.std::__cxx11::basic_string" }
%"class.std::__cxx11::basic_string" = type { %"struct.std::__cxx11::basic_string<char>::_Alloc_hider", i64, %union.anon }
%"struct.std::__cxx11::basic_string<char>::_Alloc_hider" = type { ptr }
%union.anon = type { i64, [8 x i8] }

; Function Attrs: mustprogress uwtable
define internal noundef ptr @_ZN7Imf_3_212_GLOBAL__N_113make_ifstreamEPKc(ptr noundef %filename) #4 personality ptr @__gxx_personality_v0 {
entry:
  %filename.addr = alloca ptr, align 8
  %exn.slot = alloca ptr, align 8
  %ehselector.slot = alloca i32, align 4
  store ptr %filename, ptr %filename.addr, align 8
  %call = call noalias noundef nonnull ptr @_Znwm(i64 noundef 520) #10
  %0 = load ptr, ptr %filename.addr, align 8
  invoke void @_ZNSt14basic_ifstreamIcSt11char_traitsIcEEC1EPKcSt13_Ios_Openmode(ptr noundef nonnull align 8 dereferenceable(256) %call, ptr noundef %0, i32 noundef 4)
          to label %invoke.cont unwind label %lpad

invoke.cont:                                      ; preds = %entry
  ret ptr %call

lpad:                                             ; preds = %entry
  %1 = landingpad { ptr, i32 }
          cleanup
  %2 = extractvalue { ptr, i32 } %1, 0
  store ptr %2, ptr %exn.slot, align 8
  %3 = extractvalue { ptr, i32 } %1, 1
  store i32 %3, ptr %ehselector.slot, align 4
  call void @_ZdlPv(ptr noundef %call) #11
  br label %eh.resume

eh.resume:                                        ; preds = %lpad
  %exn = load ptr, ptr %exn.slot, align 8
  %sel = load i32, ptr %ehselector.slot, align 4
  %lpad.val = insertvalue { ptr, i32 } poison, ptr %exn, 0
  %lpad.val1 = insertvalue { ptr, i32 } %lpad.val, i32 %sel, 1
  resume { ptr, i32 } %lpad.val1
}

; Function Attrs: mustprogress uwtable
define void @_ZN7Imf_3_211StdIFStreamC2EPKc(ptr noundef nonnull align 8 dereferenceable(49) %this, ptr noundef %fileName) unnamed_addr #4 align 2 personality ptr @__gxx_personality_v0 {
entry:
  %this.addr = alloca ptr, align 8
  %fileName.addr = alloca ptr, align 8
  %exn.slot = alloca ptr, align 8
  %ehselector.slot = alloca i32, align 4
  store ptr %this, ptr %this.addr, align 8
  store ptr %fileName, ptr %fileName.addr, align 8
  %this1 = load ptr, ptr %this.addr, align 8
  %0 = load ptr, ptr %fileName.addr, align 8
  call void @_ZN7Imf_3_27IStreamC2EPKc(ptr noundef nonnull align 8 dereferenceable(40) %this1, ptr noundef %0)
  store ptr getelementptr inbounds ({ [10 x ptr] }, ptr @_ZTVN7Imf_3_211StdIFStreamE, i32 0, i32 0, i32 2), ptr %this1, align 8
  %_is = getelementptr inbounds %"class.Imf_3_2::StdIFStream", ptr %this1, i32 0, i32 1
  %1 = load ptr, ptr %fileName.addr, align 8
  %call = invoke noundef ptr @_ZN7Imf_3_212_GLOBAL__N_113make_ifstreamEPKc(ptr noundef %1)
          to label %invoke.cont unwind label %lpad

invoke.cont:                                      ; preds = %entry
  store ptr %call, ptr %_is, align 8
  %_deleteStream = getelementptr inbounds %"class.Imf_3_2::StdIFStream", ptr %this1, i32 0, i32 2
  store i8 1, ptr %_deleteStream, align 8
  %_is2 = getelementptr inbounds %"class.Imf_3_2::StdIFStream", ptr %this1, i32 0, i32 1
  %2 = load ptr, ptr %_is2, align 8
  %vtable = load ptr, ptr %2, align 8
  %vbase.offset.ptr = getelementptr i8, ptr %vtable, i64 -24
  %vbase.offset = load i64, ptr %vbase.offset.ptr, align 8
  %add.ptr = getelementptr inbounds i8, ptr %2, i64 %vbase.offset
  %call4 = invoke noundef zeroext i1 @_ZNKSt9basic_iosIcSt11char_traitsIcEEntEv(ptr noundef nonnull align 8 dereferenceable(264) %add.ptr)
          to label %invoke.cont3 unwind label %lpad

invoke.cont3:                                     ; preds = %invoke.cont
  br i1 %call4, label %if.then, label %if.end

if.then:                                          ; preds = %invoke.cont3
  %_is5 = getelementptr inbounds %"class.Imf_3_2::StdIFStream", ptr %this1, i32 0, i32 1
  %3 = load ptr, ptr %_is5, align 8
  %isnull = icmp eq ptr %3, null
  br i1 %isnull, label %delete.end, label %delete.notnull

delete.notnull:                                   ; preds = %if.then
  %vtable6 = load ptr, ptr %3, align 8
  %vfn = getelementptr inbounds ptr, ptr %vtable6, i64 1
  %4 = load ptr, ptr %vfn, align 8
  call void %4(ptr noundef nonnull align 8 dereferenceable(256) %3) #3
  br label %delete.end

delete.end:                                       ; preds = %delete.notnull, %if.then
  invoke void @_ZN7Iex_3_213throwErrnoExcEv()
          to label %invoke.cont7 unwind label %lpad

invoke.cont7:                                     ; preds = %delete.end
  br label %if.end

lpad:                                             ; preds = %delete.end, %invoke.cont, %entry
  %5 = landingpad { ptr, i32 }
          cleanup
  %6 = extractvalue { ptr, i32 } %5, 0
  store ptr %6, ptr %exn.slot, align 8
  %7 = extractvalue { ptr, i32 } %5, 1
  store i32 %7, ptr %ehselector.slot, align 4
  call void @_ZN7Imf_3_27IStreamD2Ev(ptr noundef nonnull align 8 dereferenceable(40) %this1) #3
  br label %eh.resume

if.end:                                           ; preds = %invoke.cont7, %invoke.cont3
  ret void

eh.resume:                                        ; preds = %lpad
  %exn = load ptr, ptr %exn.slot, align 8
  %sel = load i32, ptr %ehselector.slot, align 4
  %lpad.val = insertvalue { ptr, i32 } poison, ptr %exn, 0
  %lpad.val8 = insertvalue { ptr, i32 } %lpad.val, i32 %sel, 1
  resume { ptr, i32 } %lpad.val8
}